; Function Attrs: mustprogress uwtable
define dso_local void @_ZN4pbrt22FormattingParserTarget9TransformEPfNS_7FileLocE(ptr noundef nonnull align 8 dereferenceable(216) %this, ptr noundef %transform, ptr nocapture noundef readnone byval(%"struct.pbrt::FileLoc") align 8 %loc) unnamed_addr #3 align 2 personality ptr @__gxx_personality_v0 {
entry:
  %s.i7 = alloca %"class.std::__cxx11::basic_string", align 8
  %s.i3 = alloca %"class.std::__cxx11::basic_string", align 8
  %s.i = alloca %"class.std::__cxx11::basic_string", align 8
  %ref.tmp = alloca %"class.std::__cxx11::basic_string", align 8
  call void @_ZNK4pbrt22FormattingParserTarget6indentB5cxx11Ei(ptr nonnull sret(%"class.std::__cxx11::basic_string") align 8 %ref.tmp, ptr noundef nonnull align 8 dereferenceable(216) %this, i32 noundef 0)
  call void @llvm.lifetime.start.p0(i64 32, ptr nonnull %s.i)
  call void @_ZNSt7__cxx1112basic_stringIcSt11char_traitsIcESaIcEEC1Ev(ptr noundef nonnull align 8 dereferenceable(32) %s.i) #32
  invoke void @_ZN4pbrt6detail21stringPrintfRecursiveINSt7__cxx1112basic_stringIcSt11char_traitsIcESaIcEEEJEEEvPS7_PKcOT_DpOT0_(ptr noundef nonnull %s.i, ptr noundef nonnull @.str.95, ptr noundef nonnull align 8 dereferenceable(32) %ref.tmp)
          to label %invoke.cont unwind label %lpad.i.i

lpad.i.i:                                         ; preds = %entry
  %0 = landingpad { ptr, i32 }
          cleanup
  call void @_ZNSt7__cxx1112basic_stringIcSt11char_traitsIcESaIcEED1Ev(ptr noundef nonnull align 8 dereferenceable(32) %s.i) #32
  br label %common.resume

invoke.cont:                                      ; preds = %entry
  %call.i = call noundef ptr @_ZNKSt7__cxx1112basic_stringIcSt11char_traitsIcESaIcEE5c_strEv(ptr noundef nonnull align 8 dereferenceable(32) %s.i) #32
  %1 = load ptr, ptr @stdout, align 8
  %call1.i = call i32 @fputs(ptr noundef %call.i, ptr noundef %1)
  call void @_ZNSt7__cxx1112basic_stringIcSt11char_traitsIcESaIcEED1Ev(ptr noundef nonnull align 8 dereferenceable(32) %s.i) #32
  call void @llvm.lifetime.end.p0(i64 32, ptr nonnull %s.i)
  call void @_ZNSt7__cxx1112basic_stringIcSt11char_traitsIcESaIcEED1Ev(ptr noundef nonnull align 8 dereferenceable(32) %ref.tmp) #32
  br label %for.body

for.body:                                         ; preds = %invoke.cont, %_ZN4pbrt6PrintfIJRfEEEvPKcDpOT_.exit
  %indvars.iv = phi i64 [ 0, %invoke.cont ], [ %indvars.iv.next, %_ZN4pbrt6PrintfIJRfEEEvPKcDpOT_.exit ]
  %arrayidx = getelementptr inbounds float, ptr %transform, i64 %indvars.iv
  call void @llvm.lifetime.start.p0(i64 32, ptr nonnull %s.i3)
  call void @_ZNSt7__cxx1112basic_stringIcSt11char_traitsIcESaIcEEC1Ev(ptr noundef nonnull align 8 dereferenceable(32) %s.i3) #32
  invoke void @_ZN4pbrt6detail21stringPrintfRecursiveIRfJEEEvPNSt7__cxx1112basic_stringIcSt11char_traitsIcESaIcEEEPKcOT_DpOT0_(ptr noundef nonnull %s.i3, ptr noundef nonnull @.str.14, ptr noundef nonnull align 4 dereferenceable(4) %arrayidx)
          to label %_ZN4pbrt6PrintfIJRfEEEvPKcDpOT_.exit unwind label %lpad.i.i4

common.resume:                                    ; preds = %lpad.i.i8, %lpad.i.i, %lpad.i.i4
  %s.i7.sink = phi ptr [ %s.i7, %lpad.i.i8 ], [ %ref.tmp, %lpad.i.i ], [ %s.i3, %lpad.i.i4 ]
  %common.resume.op = phi { ptr, i32 } [ %4, %lpad.i.i8 ], [ %0, %lpad.i.i ], [ %2, %lpad.i.i4 ]
  call void @_ZNSt7__cxx1112basic_stringIcSt11char_traitsIcESaIcEED1Ev(ptr noundef nonnull align 8 dereferenceable(32) %s.i7.sink) #32
  resume { ptr, i32 } %common.resume.op

lpad.i.i4:                                        ; preds = %for.body
  %2 = landingpad { ptr, i32 }
          cleanup
  br label %common.resume

_ZN4pbrt6PrintfIJRfEEEvPKcDpOT_.exit:             ; preds = %for.body
  %call.i5 = call noundef ptr @_ZNKSt7__cxx1112basic_stringIcSt11char_traitsIcESaIcEE5c_strEv(ptr noundef nonnull align 8 dereferenceable(32) %s.i3) #32
  %3 = load ptr, ptr @stdout, align 8
  %call1.i6 = call i32 @fputs(ptr noundef %call.i5, ptr noundef %3)
  call void @_ZNSt7__cxx1112basic_stringIcSt11char_traitsIcESaIcEED1Ev(ptr noundef nonnull align 8 dereferenceable(32) %s.i3) #32
  call void @llvm.lifetime.end.p0(i64 32, ptr nonnull %s.i3)
  %indvars.iv.next = add nuw nsw i64 %indvars.iv, 1
  %exitcond.not = icmp eq i64 %indvars.iv.next, 16
  br i1 %exitcond.not, label %for.end, label %for.body, !llvm.loop !254

for.end:                                          ; preds = %_ZN4pbrt6PrintfIJRfEEEvPKcDpOT_.exit
  call void @llvm.lifetime.start.p0(i64 32, ptr nonnull %s.i7)
  call void @_ZNSt7__cxx1112basic_stringIcSt11char_traitsIcESaIcEEC1Ev(ptr noundef nonnull align 8 dereferenceable(32) %s.i7) #32
  invoke void @_ZN4pbrt6detail21stringPrintfRecursiveEPNSt7__cxx1112basic_stringIcSt11char_traitsIcESaIcEEEPKc(ptr noundef nonnull %s.i7, ptr noundef nonnull @.str.94)
          to label %_ZN4pbrt6PrintfIJEEEvPKcDpOT_.exit unwind label %lpad.i.i8

lpad.i.i8:                                        ; preds = %for.end
  %4 = landingpad { ptr, i32 }
          cleanup
  br label %common.resume

_ZN4pbrt6PrintfIJEEEvPKcDpOT_.exit:               ; preds = %for.end
  %call.i9 = call noundef ptr @_ZNKSt7__cxx1112basic_stringIcSt11char_traitsIcESaIcEE5c_strEv(ptr noundef nonnull align 8 dereferenceable(32) %s.i7) #32
  %5 = load ptr, ptr @stdout, align 8
  %call1.i10 = call i32 @fputs(ptr noundef %call.i9, ptr noundef %5)
  call void @_ZNSt7__cxx1112basic_stringIcSt11char_traitsIcESaIcEED1Ev(ptr noundef nonnull align 8 dereferenceable(32) %s.i7) #32
  call void @llvm.lifetime.end.p0(i64 32, ptr nonnull %s.i7)
  ret void
}